target datalayout = "e-m:e-p270:32:32-p271:32:32-p272:64:64-i64:64-i128:128-f80:128-n8:16:32:64-S128"
target triple = "x86_64-pc-linux-gnu"

%struct.rc2_key_st = type { [64 x i32] }

; Function Attrs: nounwind uwtable
define void @RC2_decrypt(ptr noundef %0, ptr noundef %1) #0 {
  %3 = alloca ptr, align 8
  %4 = alloca ptr, align 8
  %5 = alloca i32, align 4
  %6 = alloca i32, align 4
  %7 = alloca ptr, align 8
  %8 = alloca ptr, align 8
  %9 = alloca i32, align 4
  %10 = alloca i32, align 4
  %11 = alloca i32, align 4
  %12 = alloca i32, align 4
  %13 = alloca i32, align 4
  %14 = alloca i64, align 8
  store ptr %0, ptr %3, align 8, !tbaa !18
  store ptr %1, ptr %4, align 8, !tbaa !10
  call void @llvm.lifetime.start.p0(i64 4, ptr %5) #2
  call void @llvm.lifetime.start.p0(i64 4, ptr %6) #2
  call void @llvm.lifetime.start.p0(i64 8, ptr %7) #2
  call void @llvm.lifetime.start.p0(i64 8, ptr %8) #2
  call void @llvm.lifetime.start.p0(i64 4, ptr %9) #2
  call void @llvm.lifetime.start.p0(i64 4, ptr %10) #2
  call void @llvm.lifetime.start.p0(i64 4, ptr %11) #2
  call void @llvm.lifetime.start.p0(i64 4, ptr %12) #2
  call void @llvm.lifetime.start.p0(i64 4, ptr %13) #2
  call void @llvm.lifetime.start.p0(i64 8, ptr %14) #2
  %15 = load ptr, ptr %3, align 8, !tbaa !18
  %16 = getelementptr inbounds i64, ptr %15, i64 0
  %17 = load i64, ptr %16, align 8, !tbaa !8
  store i64 %17, ptr %14, align 8, !tbaa !8
  %18 = load i64, ptr %14, align 8, !tbaa !8
  %19 = trunc i64 %18 to i32
  %20 = and i32 %19, 65535
  store i32 %20, ptr %9, align 4, !tbaa !12
  %21 = load i64, ptr %14, align 8, !tbaa !8
  %22 = lshr i64 %21, 16
  %23 = trunc i64 %22 to i32
  store i32 %23, ptr %10, align 4, !tbaa !12
  %24 = load ptr, ptr %3, align 8, !tbaa !18
  %25 = getelementptr inbounds i64, ptr %24, i64 1
  %26 = load i64, ptr %25, align 8, !tbaa !8
  store i64 %26, ptr %14, align 8, !tbaa !8
  %27 = load i64, ptr %14, align 8, !tbaa !8
  %28 = trunc i64 %27 to i32
  %29 = and i32 %28, 65535
  store i32 %29, ptr %11, align 4, !tbaa !12
  %30 = load i64, ptr %14, align 8, !tbaa !8
  %31 = lshr i64 %30, 16
  %32 = trunc i64 %31 to i32
  store i32 %32, ptr %12, align 4, !tbaa !12
  store i32 3, ptr %6, align 4, !tbaa !12
  store i32 5, ptr %5, align 4, !tbaa !12
  %33 = load ptr, ptr %4, align 8, !tbaa !10
  %34 = getelementptr inbounds nuw %struct.rc2_key_st, ptr %33, i32 0, i32 0
  %35 = getelementptr inbounds [64 x i32], ptr %34, i64 0, i64 63
  store ptr %35, ptr %7, align 8, !tbaa !20
  %36 = load ptr, ptr %4, align 8, !tbaa !10
  %37 = getelementptr inbounds nuw %struct.rc2_key_st, ptr %36, i32 0, i32 0
  %38 = getelementptr inbounds [64 x i32], ptr %37, i64 0, i64 0
  store ptr %38, ptr %8, align 8, !tbaa !20
  br label %39

39:                                               ; preds = %172, %2
  %40 = load i32, ptr %12, align 4, !tbaa !12
  %41 = shl i32 %40, 11
  %42 = load i32, ptr %12, align 4, !tbaa !12
  %43 = lshr i32 %42, 5
  %44 = or i32 %41, %43
  %45 = and i32 %44, 65535
  store i32 %45, ptr %13, align 4, !tbaa !12
  %46 = load i32, ptr %13, align 4, !tbaa !12
  %47 = load i32, ptr %9, align 4, !tbaa !12
  %48 = load i32, ptr %11, align 4, !tbaa !12
  %49 = xor i32 %48, -1
  %50 = and i32 %47, %49
  %51 = sub i32 %46, %50
  %52 = load i32, ptr %10, align 4, !tbaa !12
  %53 = load i32, ptr %11, align 4, !tbaa !12
  %54 = and i32 %52, %53
  %55 = sub i32 %51, %54
  %56 = load ptr, ptr %7, align 8, !tbaa !20
  %57 = getelementptr inbounds i32, ptr %56, i32 -1
  store ptr %57, ptr %7, align 8, !tbaa !20
  %58 = load i32, ptr %56, align 4, !tbaa !12
  %59 = sub i32 %55, %58
  %60 = and i32 %59, 65535
  store i32 %60, ptr %12, align 4, !tbaa !12
  %61 = load i32, ptr %11, align 4, !tbaa !12
  %62 = shl i32 %61, 13
  %63 = load i32, ptr %11, align 4, !tbaa !12
  %64 = lshr i32 %63, 3
  %65 = or i32 %62, %64
  %66 = and i32 %65, 65535
  store i32 %66, ptr %13, align 4, !tbaa !12
  %67 = load i32, ptr %13, align 4, !tbaa !12
  %68 = load i32, ptr %12, align 4, !tbaa !12
  %69 = load i32, ptr %10, align 4, !tbaa !12
  %70 = xor i32 %69, -1
  %71 = and i32 %68, %70
  %72 = sub i32 %67, %71
  %73 = load i32, ptr %9, align 4, !tbaa !12
  %74 = load i32, ptr %10, align 4, !tbaa !12
  %75 = and i32 %73, %74
  %76 = sub i32 %72, %75
  %77 = load ptr, ptr %7, align 8, !tbaa !20
  %78 = getelementptr inbounds i32, ptr %77, i32 -1
  store ptr %78, ptr %7, align 8, !tbaa !20
  %79 = load i32, ptr %77, align 4, !tbaa !12
  %80 = sub i32 %76, %79
  %81 = and i32 %80, 65535
  store i32 %81, ptr %11, align 4, !tbaa !12
  %82 = load i32, ptr %10, align 4, !tbaa !12
  %83 = shl i32 %82, 14
  %84 = load i32, ptr %10, align 4, !tbaa !12
  %85 = lshr i32 %84, 2
  %86 = or i32 %83, %85
  %87 = and i32 %86, 65535
  store i32 %87, ptr %13, align 4, !tbaa !12
  %88 = load i32, ptr %13, align 4, !tbaa !12
  %89 = load i32, ptr %11, align 4, !tbaa !12
  %90 = load i32, ptr %9, align 4, !tbaa !12
  %91 = xor i32 %90, -1
  %92 = and i32 %89, %91
  %93 = sub i32 %88, %92
  %94 = load i32, ptr %12, align 4, !tbaa !12
  %95 = load i32, ptr %9, align 4, !tbaa !12
  %96 = and i32 %94, %95
  %97 = sub i32 %93, %96
  %98 = load ptr, ptr %7, align 8, !tbaa !20
  %99 = getelementptr inbounds i32, ptr %98, i32 -1
  store ptr %99, ptr %7, align 8, !tbaa !20
  %100 = load i32, ptr %98, align 4, !tbaa !12
  %101 = sub i32 %97, %100
  %102 = and i32 %101, 65535
  store i32 %102, ptr %10, align 4, !tbaa !12
  %103 = load i32, ptr %9, align 4, !tbaa !12
  %104 = shl i32 %103, 15
  %105 = load i32, ptr %9, align 4, !tbaa !12
  %106 = lshr i32 %105, 1
  %107 = or i32 %104, %106
  %108 = and i32 %107, 65535
  store i32 %108, ptr %13, align 4, !tbaa !12
  %109 = load i32, ptr %13, align 4, !tbaa !12
  %110 = load i32, ptr %10, align 4, !tbaa !12
  %111 = load i32, ptr %12, align 4, !tbaa !12
  %112 = xor i32 %111, -1
  %113 = and i32 %110, %112
  %114 = sub i32 %109, %113
  %115 = load i32, ptr %11, align 4, !tbaa !12
  %116 = load i32, ptr %12, align 4, !tbaa !12
  %117 = and i32 %115, %116
  %118 = sub i32 %114, %117
  %119 = load ptr, ptr %7, align 8, !tbaa !20
  %120 = getelementptr inbounds i32, ptr %119, i32 -1
  store ptr %120, ptr %7, align 8, !tbaa !20
  %121 = load i32, ptr %119, align 4, !tbaa !12
  %122 = sub i32 %118, %121
  %123 = and i32 %122, 65535
  store i32 %123, ptr %9, align 4, !tbaa !12
  %124 = load i32, ptr %5, align 4, !tbaa !12
  %125 = add nsw i32 %124, -1
  store i32 %125, ptr %5, align 4, !tbaa !12
  %126 = icmp eq i32 %125, 0
  br i1 %126, label %127, label %172

127:                                              ; preds = %39
  %128 = load i32, ptr %6, align 4, !tbaa !12
  %129 = add nsw i32 %128, -1
  store i32 %129, ptr %6, align 4, !tbaa !12
  %130 = icmp eq i32 %129, 0
  br i1 %130, label %131, label %132

131:                                              ; preds = %127
  br label %173

132:                                              ; preds = %127
  %133 = load i32, ptr %6, align 4, !tbaa !12
  %134 = icmp eq i32 %133, 2
  %135 = select i1 %134, i32 6, i32 5
  store i32 %135, ptr %5, align 4, !tbaa !12
  %136 = load i32, ptr %12, align 4, !tbaa !12
  %137 = load ptr, ptr %8, align 8, !tbaa !20
  %138 = load i32, ptr %11, align 4, !tbaa !12
  %139 = and i32 %138, 63
  %140 = zext i32 %139 to i64
  %141 = getelementptr inbounds nuw i32, ptr %137, i64 %140
  %142 = load i32, ptr %141, align 4, !tbaa !12
  %143 = sub i32 %136, %142
  %144 = and i32 %143, 65535
  store i32 %144, ptr %12, align 4, !tbaa !12
  %145 = load i32, ptr %11, align 4, !tbaa !12
  %146 = load ptr, ptr %8, align 8, !tbaa !20
  %147 = load i32, ptr %10, align 4, !tbaa !12
  %148 = and i32 %147, 63
  %149 = zext i32 %148 to i64
  %150 = getelementptr inbounds nuw i32, ptr %146, i64 %149
  %151 = load i32, ptr %150, align 4, !tbaa !12
  %152 = sub i32 %145, %151
  %153 = and i32 %152, 65535
  store i32 %153, ptr %11, align 4, !tbaa !12
  %154 = load i32, ptr %10, align 4, !tbaa !12
  %155 = load ptr, ptr %8, align 8, !tbaa !20
  %156 = load i32, ptr %9, align 4, !tbaa !12
  %157 = and i32 %156, 63
  %158 = zext i32 %157 to i64
  %159 = getelementptr inbounds nuw i32, ptr %155, i64 %158
  %160 = load i32, ptr %159, align 4, !tbaa !12
  %161 = sub i32 %154, %160
  %162 = and i32 %161, 65535
  store i32 %162, ptr %10, align 4, !tbaa !12
  %163 = load i32, ptr %9, align 4, !tbaa !12
  %164 = load ptr, ptr %8, align 8, !tbaa !20
  %165 = load i32, ptr %12, align 4, !tbaa !12
  %166 = and i32 %165, 63
  %167 = zext i32 %166 to i64
  %168 = getelementptr inbounds nuw i32, ptr %164, i64 %167
  %169 = load i32, ptr %168, align 4, !tbaa !12
  %170 = sub i32 %163, %169
  %171 = and i32 %170, 65535
  store i32 %171, ptr %9, align 4, !tbaa !12
  br label %172

172:                                              ; preds = %132, %39
  br label %39

173:                                              ; preds = %131
  %174 = load i32, ptr %9, align 4, !tbaa !12
  %175 = and i32 %174, 65535
  %176 = zext i32 %175 to i64
  %177 = load i32, ptr %10, align 4, !tbaa !12
  %178 = and i32 %177, 65535
  %179 = zext i32 %178 to i64
  %180 = shl i64 %179, 16
  %181 = or i64 %176, %180
  %182 = load ptr, ptr %3, align 8, !tbaa !18
  %183 = getelementptr inbounds i64, ptr %182, i64 0
  store i64 %181, ptr %183, align 8, !tbaa !8
  %184 = load i32, ptr %11, align 4, !tbaa !12
  %185 = and i32 %184, 65535
  %186 = zext i32 %185 to i64
  %187 = load i32, ptr %12, align 4, !tbaa !12
  %188 = and i32 %187, 65535
  %189 = zext i32 %188 to i64
  %190 = shl i64 %189, 16
  %191 = or i64 %186, %190
  %192 = load ptr, ptr %3, align 8, !tbaa !18
  %193 = getelementptr inbounds i64, ptr %192, i64 1
  store i64 %191, ptr %193, align 8, !tbaa !8
  call void @llvm.lifetime.end.p0(i64 8, ptr %14) #2
  call void @llvm.lifetime.end.p0(i64 4, ptr %13) #2
  call void @llvm.lifetime.end.p0(i64 4, ptr %12) #2
  call void @llvm.lifetime.end.p0(i64 4, ptr %11) #2
  call void @llvm.lifetime.end.p0(i64 4, ptr %10) #2
  call void @llvm.lifetime.end.p0(i64 4, ptr %9) #2
  call void @llvm.lifetime.end.p0(i64 8, ptr %8) #2
  call void @llvm.lifetime.end.p0(i64 8, ptr %7) #2
  call void @llvm.lifetime.end.p0(i64 4, ptr %6) #2
  call void @llvm.lifetime.end.p0(i64 4, ptr %5) #2
  ret void
}