; Function Attrs: nofree norecurse nosync nounwind memory(argmem: readwrite) uwtable
define void @RC2_decrypt(ptr noundef captures(none) %0, ptr noundef readonly captures(none) %1) local_unnamed_addr #2 {
  %3 = load i64, ptr %0, align 8, !tbaa !3
  %4 = trunc i64 %3 to i32
  %5 = and i32 %4, 65535
  %6 = lshr i64 %3, 16
  %7 = trunc i64 %6 to i32
  %8 = getelementptr inbounds nuw i8, ptr %0, i64 8
  %9 = load i64, ptr %8, align 8, !tbaa !3
  %10 = trunc i64 %9 to i32
  %11 = and i32 %10, 65535
  %12 = lshr i64 %9, 16
  %13 = trunc i64 %12 to i32
  %14 = getelementptr inbounds nuw i8, ptr %1, i64 252
  br label %15

15:                                               ; preds = %94, %2
  %.070 = phi ptr [ %14, %2 ], [ %57, %94 ]
  %.068 = phi i32 [ %5, %2 ], [ %.169, %94 ]
  %.066 = phi i32 [ %7, %2 ], [ %.167, %94 ]
  %.064 = phi i32 [ %11, %2 ], [ %.165, %94 ]
  %.062 = phi i32 [ %13, %2 ], [ %.163, %94 ]
  %.060 = phi i32 [ 3, %2 ], [ %.161, %94 ]
  %.0 = phi i32 [ 5, %2 ], [ %.1, %94 ]
  %16 = shl i32 %.062, 11
  %17 = lshr i32 %.062, 5
  %18 = or i32 %16, %17
  %19 = xor i32 %.064, -1
  %20 = and i32 %.068, %19
  %21 = and i32 %.064, %.066
  %22 = getelementptr inbounds i8, ptr %.070, i64 -4
  %23 = load i32, ptr %.070, align 4, !tbaa !11
  %24 = add nuw nsw i32 %20, %21
  %25 = add i32 %24, %23
  %26 = sub i32 %18, %25
  %27 = and i32 %26, 65535
  %28 = shl nuw nsw i32 %.064, 13
  %29 = lshr i32 %.064, 3
  %30 = or i32 %28, %29
  %31 = xor i32 %.066, -1
  %32 = and i32 %26, %31
  %33 = and i32 %.066, %.068
  %34 = getelementptr inbounds i8, ptr %.070, i64 -8
  %35 = load i32, ptr %22, align 4, !tbaa !11
  %36 = add i32 %33, %35
  %37 = add i32 %36, %32
  %38 = sub i32 %30, %37
  %39 = and i32 %38, 65535
  %40 = shl i32 %.066, 14
  %41 = lshr i32 %.066, 2
  %42 = or i32 %40, %41
  %43 = xor i32 %.068, -1
  %44 = and i32 %38, %43
  %45 = and i32 %26, %.068
  %46 = getelementptr inbounds i8, ptr %.070, i64 -12
  %47 = load i32, ptr %34, align 4, !tbaa !11
  %48 = add i32 %45, %47
  %49 = add i32 %48, %44
  %50 = sub i32 %42, %49
  %51 = shl nuw nsw i32 %.068, 15
  %52 = lshr i32 %.068, 1
  %53 = or i32 %51, %52
  %54 = xor i32 %27, -1
  %55 = and i32 %50, %54
  %56 = and i32 %38, %26
  %57 = getelementptr inbounds i8, ptr %.070, i64 -16
  %58 = load i32, ptr %46, align 4, !tbaa !11
  %59 = add i32 %58, %56
  %60 = add i32 %59, %55
  %61 = sub i32 %53, %60
  %62 = and i32 %61, 65535
  %63 = add nsw i32 %.0, -1
  %64 = icmp eq i32 %63, 0
  br i1 %64, label %65, label %94

65:                                               ; preds = %15
  %66 = add nsw i32 %.060, -1
  %67 = icmp eq i32 %66, 0
  br i1 %67, label %95, label %68

68:                                               ; preds = %65
  %69 = icmp eq i32 %66, 2
  %70 = select i1 %69, i32 6, i32 5
  %71 = and i32 %38, 63
  %72 = zext nneg i32 %71 to i64
  %73 = getelementptr inbounds nuw i32, ptr %1, i64 %72
  %74 = load i32, ptr %73, align 4, !tbaa !11
  %75 = sub i32 %26, %74
  %76 = and i32 %75, 65535
  %77 = and i32 %50, 63
  %78 = zext nneg i32 %77 to i64
  %79 = getelementptr inbounds nuw i32, ptr %1, i64 %78
  %80 = load i32, ptr %79, align 4, !tbaa !11
  %81 = sub i32 %38, %80
  %82 = and i32 %81, 65535
  %83 = and i32 %61, 63
  %84 = zext nneg i32 %83 to i64
  %85 = getelementptr inbounds nuw i32, ptr %1, i64 %84
  %86 = load i32, ptr %85, align 4, !tbaa !11
  %87 = sub i32 %50, %86
  %88 = and i32 %75, 63
  %89 = zext nneg i32 %88 to i64
  %90 = getelementptr inbounds nuw i32, ptr %1, i64 %89
  %91 = load i32, ptr %90, align 4, !tbaa !11
  %92 = sub i32 %61, %91
  %93 = and i32 %92, 65535
  br label %94

94:                                               ; preds = %68, %15
  %.169 = phi i32 [ %93, %68 ], [ %62, %15 ]
  %.167.in = phi i32 [ %87, %68 ], [ %50, %15 ]
  %.165 = phi i32 [ %82, %68 ], [ %39, %15 ]
  %.163 = phi i32 [ %76, %68 ], [ %27, %15 ]
  %.161 = phi i32 [ %66, %68 ], [ %.060, %15 ]
  %.1 = phi i32 [ %70, %68 ], [ %63, %15 ]
  %.167 = and i32 %.167.in, 65535
  br label %15

95:                                               ; preds = %65
  %96 = shl i32 %50, 16
  %97 = or disjoint i32 %62, %96
  %98 = zext i32 %97 to i64
  store i64 %98, ptr %0, align 8, !tbaa !3
  %99 = shl i32 %26, 16
  %100 = or disjoint i32 %39, %99
  %101 = zext i32 %100 to i64
  store i64 %101, ptr %8, align 8, !tbaa !3
  ret void
}